; Function Attrs: nofree norecurse nosync nounwind memory(read, argmem: readwrite, inaccessiblemem: none) uwtable
define internal void @handle_xdg_toplevel_wm_capabilities(ptr noundef writeonly captures(none) initializes((96, 100)) %0, ptr readnone captures(none) %1, ptr noundef readonly captures(none) %2) #11 {
  %4 = getelementptr inbounds nuw i8, ptr %0, i64 96
  store i32 0, ptr %4, align 8
  %5 = getelementptr inbounds nuw i8, ptr %2, i64 16
  %6 = load i64, ptr %2, align 8
  %.not = icmp eq i64 %6, 0
  br i1 %.not, label %._crit_edge, label %.lr.ph.preheader

.lr.ph.preheader:                                 ; preds = %3
  %7 = load ptr, ptr %5, align 8
  br label %.lr.ph

.lr.ph:                                           ; preds = %.lr.ph.preheader, %13
  %8 = phi i32 [ %14, %13 ], [ 0, %.lr.ph.preheader ]
  %.012 = phi ptr [ %15, %13 ], [ %7, %.lr.ph.preheader ]
  %9 = load i32, ptr %.012, align 4
  %switch.tableidx = add i32 %9, -1
  %10 = icmp ult i32 %switch.tableidx, 4
  br i1 %10, label %switch.lookup, label %13

switch.lookup:                                    ; preds = %.lr.ph
  %11 = zext nneg i32 %switch.tableidx to i64
  %switch.gep = getelementptr inbounds nuw [4 x i32], ptr @switch.table.handle_xdg_toplevel_wm_capabilities, i64 0, i64 %11
  %switch.load = load i32, ptr %switch.gep, align 4
  %12 = or i32 %8, %switch.load
  store i32 %12, ptr %4, align 8
  br label %13

13:                                               ; preds = %.lr.ph, %switch.lookup
  %14 = phi i32 [ %8, %.lr.ph ], [ %12, %switch.lookup ]
  %15 = getelementptr inbounds nuw i8, ptr %.012, i64 4
  %16 = load ptr, ptr %5, align 8
  %17 = load i64, ptr %2, align 8
  %18 = getelementptr inbounds nuw i8, ptr %16, i64 %17
  %19 = icmp ult ptr %15, %18
  br i1 %19, label %.lr.ph, label %._crit_edge, !llvm.loop !21

._crit_edge:                                      ; preds = %13, %3
  ret void
}